; Function Attrs: nofree norecurse nosync nounwind memory(read, inaccessiblemem: none) uwtable
define dso_local i32 @pkg_countCharList(ptr noundef readonly %0) local_unnamed_addr #7 {
  %.not4 = icmp eq ptr %0, null
  br i1 %.not4, label %._crit_edge, label %.lr.ph

.lr.ph:                                           ; preds = %1, %.lr.ph
  %.06 = phi i32 [ %2, %.lr.ph ], [ 0, %1 ]
  %.035 = phi ptr [ %4, %.lr.ph ], [ %0, %1 ]
  %2 = add i32 %.06, 1
  %3 = getelementptr inbounds nuw i8, ptr %.035, i64 8
  %4 = load ptr, ptr %3, align 8, !tbaa !12
  %.not = icmp eq ptr %4, null
  br i1 %.not, label %._crit_edge, label %.lr.ph, !llvm.loop !18

._crit_edge:                                      ; preds = %.lr.ph, %1
  %.0.lcssa = phi i32 [ 0, %1 ], [ %2, %.lr.ph ]
  ret i32 %.0.lcssa
}